; Function Attrs: mustprogress uwtable
define dso_local noundef i64 @_ZN4Luau7CodeGen3X6418AssemblyBuilderX6412allocateDataEmm(ptr noundef nonnull align 8 dereferenceable(252) %0, i64 noundef %1, i64 noundef %2) local_unnamed_addr #0 align 2 {
  %4 = getelementptr inbounds nuw i8, ptr %0, i64 224
  %5 = load i64, ptr %4, align 8, !tbaa !50
  %6 = icmp ult i64 %5, %1
  br i1 %6, label %7, label %20

7:                                                ; preds = %3
  %8 = getelementptr inbounds nuw i8, ptr %0, i64 8
  %9 = load ptr, ptr %8, align 8, !tbaa !48
  %10 = load ptr, ptr %0, align 8, !tbaa !49
  %11 = ptrtoint ptr %9 to i64
  %12 = ptrtoint ptr %10 to i64
  %13 = sub i64 %11, %12
  %14 = shl i64 %13, 1
  tail call void @_ZNSt6vectorIhSaIhEE6resizeEm(ptr noundef nonnull align 8 dereferenceable(24) %0, i64 noundef %14)
  %15 = load ptr, ptr %0, align 8, !tbaa !49
  %16 = getelementptr inbounds nuw i8, ptr %15, i64 %13
  tail call void @llvm.memcpy.p0.p0.i64(ptr nonnull align 1 %16, ptr nonnull align 1 %15, i64 %13, i1 false)
  %17 = load ptr, ptr %0, align 8, !tbaa !49
  tail call void @llvm.memset.p0.i64(ptr nonnull align 1 %17, i8 0, i64 %13, i1 false)
  %18 = load i64, ptr %4, align 8, !tbaa !50
  %19 = add i64 %18, %13
  br label %20

20:                                               ; preds = %7, %3
  %21 = phi i64 [ %19, %7 ], [ %5, %3 ]
  %22 = sub i64 %21, %1
  %23 = sub i64 0, %2
  %24 = and i64 %22, %23
  store i64 %24, ptr %4, align 8, !tbaa !50
  ret i64 %24
}